TN:
SF:/Applications/Xcode.app/Contents/Developer/Toolchains/XcodeDefault.xctoolchain/usr/include/c++/v1/__functional_base
FN:85,_ZNSt3__19addressofIcEEPT_RS1_
FN:85,_ZNSt3__19addressofIKcEEPT_RS2_
FNDA:16,_ZNSt3__19addressofIKcEEPT_RS2_
FNDA:12,_ZNSt3__19addressofIcEEPT_RS1_
FNF:2
FNH:2
DA:87,28
LF:1
LH:1
end_of_record
SF:/Applications/Xcode.app/Contents/Developer/Toolchains/XcodeDefault.xctoolchain/usr/include/c++/v1/iterator
FN:1137,_ZNSt3__111__wrap_iterIPKcEC2IPcEERKNS0_IT_EEPNS_9enable_ifIXsr14is_convertibleIS6_S2_EE5valueEvE4typeE
FN:1137,_ZNSt3__111__wrap_iterIPKcEC1IPcEERKNS0_IT_EEPNS_9enable_ifIXsr14is_convertibleIS6_S2_EE5valueEvE4typeE
FN:1206,_ZNKSt3__111__wrap_iterIPcEplEl
FN:1208,_ZNSt3__111__wrap_iterIPcEpLEl
FN:1217,_ZNKSt3__111__wrap_iterIPcEmiEl
FN:1230,_ZNKSt3__111__wrap_iterIPcE4baseEv
FN:1230,_ZNKSt3__111__wrap_iterIPKcE4baseEv
FN:1239,_ZNSt3__111__wrap_iterIPcEC1ES1_
FN:1239,_ZNSt3__111__wrap_iterIPcEC2ES1_
FN:1388,_ZNSt3__1miIPKcPcEENS_11__wrap_iterIT_E15difference_typeERKS6_RKNS4_IT0_EE
FN:1388,_ZNSt3__1miIPKcS2_EENS_11__wrap_iterIT_E15difference_typeERKS5_RKNS3_IT0_EE
FNDA:10,_ZNSt3__111__wrap_iterIPKcEC1IPcEERKNS0_IT_EEPNS_9enable_ifIXsr14is_convertibleIS6_S2_EE5valueEvE4typeE
FNDA:10,_ZNSt3__111__wrap_iterIPKcEC2IPcEERKNS0_IT_EEPNS_9enable_ifIXsr14is_convertibleIS6_S2_EE5valueEvE4typeE
FNDA:10,_ZNKSt3__111__wrap_iterIPcEplEl
FNDA:10,_ZNSt3__111__wrap_iterIPcEpLEl
FNDA:5,_ZNKSt3__111__wrap_iterIPcEmiEl
FNDA:15,_ZNKSt3__111__wrap_iterIPKcE4baseEv
FNDA:15,_ZNKSt3__111__wrap_iterIPcE4baseEv
FNDA:15,_ZNSt3__111__wrap_iterIPcEC1ES1_
FNDA:15,_ZNSt3__111__wrap_iterIPcEC2ES1_
FNDA:5,_ZNSt3__1miIPKcPcEENS_11__wrap_iterIT_E15difference_typeERKS6_RKNS4_IT0_EE
FNDA:5,_ZNSt3__1miIPKcS2_EENS_11__wrap_iterIT_E15difference_typeERKS5_RKNS3_IT0_EE
FNF:11
FNH:11
DA:1139,10
DA:1140,10
DA:1144,20
DA:1207,10
DA:1214,10
DA:1215,10
DA:1218,5
DA:1230,30
DA:1239,30
DA:1394,10
LF:10
LH:10
end_of_record
SF:/Applications/Xcode.app/Contents/Developer/Toolchains/XcodeDefault.xctoolchain/usr/include/c++/v1/memory
FN:930,_ZNSt3__114pointer_traitsIPcE10pointer_toERc
FN:930,_ZNSt3__114pointer_traitsIPKcE10pointer_toERS1_
FN:1056,_ZNSt3__116__to_raw_pointerIKcEEPT_S3_
FN:1713,_ZNSt3__19allocatorIcEC2Ev
FN:2221,_ZNSt3__128__libcpp_compressed_pair_impINS_12basic_stringIcNS_11char_traitsIcEENS_9allocatorIcEEE5__repES5_Lj2EEC2Ev
FN:2283,_ZNSt3__128__libcpp_compressed_pair_impINS_12basic_stringIcNS_11char_traitsIcEENS_9allocatorIcEEE5__repES5_Lj2EE5firstEv
FN:2284,_ZNKSt3__128__libcpp_compressed_pair_impINS_12basic_stringIcNS_11char_traitsIcEENS_9allocatorIcEEE5__repES5_Lj2EE5firstEv
FN:2400,_ZNSt3__117__compressed_pairINS_12basic_stringIcNS_11char_traitsIcEENS_9allocatorIcEEE5__repES5_EC2Ev
FN:2400,_ZNSt3__117__compressed_pairINS_12basic_stringIcNS_11char_traitsIcEENS_9allocatorIcEEE5__repES5_EC1Ev
FN:2455,_ZNSt3__117__compressed_pairINS_12basic_stringIcNS_11char_traitsIcEENS_9allocatorIcEEE5__repES5_E5firstEv
FN:2456,_ZNKSt3__117__compressed_pairINS_12basic_stringIcNS_11char_traitsIcEENS_9allocatorIcEEE5__repES5_E5firstEv
FNDA:16,_ZNSt3__114pointer_traitsIPKcE10pointer_toERS1_
FNDA:12,_ZNSt3__114pointer_traitsIPcE10pointer_toERc
FNDA:16,_ZNSt3__116__to_raw_pointerIKcEEPT_S3_
FNDA:7,_ZNSt3__19allocatorIcEC2Ev
FNDA:7,_ZNSt3__128__libcpp_compressed_pair_impINS_12basic_stringIcNS_11char_traitsIcEENS_9allocatorIcEEE5__repES5_Lj2EEC2Ev
FNDA:22,_ZNSt3__128__libcpp_compressed_pair_impINS_12basic_stringIcNS_11char_traitsIcEENS_9allocatorIcEEE5__repES5_Lj2EE5firstEv
FNDA:99,_ZNKSt3__128__libcpp_compressed_pair_impINS_12basic_stringIcNS_11char_traitsIcEENS_9allocatorIcEEE5__repES5_Lj2EE5firstEv
FNDA:7,_ZNSt3__117__compressed_pairINS_12basic_stringIcNS_11char_traitsIcEENS_9allocatorIcEEE5__repES5_EC1Ev
FNDA:7,_ZNSt3__117__compressed_pairINS_12basic_stringIcNS_11char_traitsIcEENS_9allocatorIcEEE5__repES5_EC2Ev
FNDA:22,_ZNSt3__117__compressed_pairINS_12basic_stringIcNS_11char_traitsIcEENS_9allocatorIcEEE5__repES5_E5firstEv
FNDA:99,_ZNKSt3__117__compressed_pairINS_12basic_stringIcNS_11char_traitsIcEENS_9allocatorIcEEE5__repES5_E5firstEv
FNF:11
FNH:11
DA:932,28
DA:1058,16
DA:1713,7
DA:2221,7
DA:2283,22
DA:2284,99
DA:2400,14
DA:2455,22
DA:2456,99
LF:9
LH:9
end_of_record
SF:/Applications/Xcode.app/Contents/Developer/Toolchains/XcodeDefault.xctoolchain/usr/include/c++/v1/string
FN:1405,_ZNSt3__112basic_stringIcNS_11char_traitsIcEENS_9allocatorIcEEE5beginEv
FN:1411,_ZNSt3__112basic_stringIcNS_11char_traitsIcEENS_9allocatorIcEEE3endEv
FN:1443,_ZNKSt3__112basic_stringIcNS_11char_traitsIcEENS_9allocatorIcEEE4sizeEv
FN:1466,_ZNSt3__112basic_stringIcNS_11char_traitsIcEENS_9allocatorIcEEEpLERKS5_
FN:1467,_ZNSt3__112basic_stringIcNS_11char_traitsIcEENS_9allocatorIcEEEpLEPKc
FN:1617,_ZNKSt3__112basic_stringIcNS_11char_traitsIcEENS_9allocatorIcEEE4dataEv
FN:1680,_ZNKSt3__112basic_stringIcNS_11char_traitsIcEENS_9allocatorIcEEE9__is_longEv
FN:1729,_ZNKSt3__112basic_stringIcNS_11char_traitsIcEENS_9allocatorIcEEE16__get_short_sizeEv
FN:1742,_ZNKSt3__112basic_stringIcNS_11char_traitsIcEENS_9allocatorIcEEE15__get_long_sizeEv
FN:1759,_ZNSt3__112basic_stringIcNS_11char_traitsIcEENS_9allocatorIcEEE18__get_long_pointerEv
FN:1762,_ZNKSt3__112basic_stringIcNS_11char_traitsIcEENS_9allocatorIcEEE18__get_long_pointerEv
FN:1765,_ZNSt3__112basic_stringIcNS_11char_traitsIcEENS_9allocatorIcEEE19__get_short_pointerEv
FN:1768,_ZNKSt3__112basic_stringIcNS_11char_traitsIcEENS_9allocatorIcEEE19__get_short_pointerEv
FN:1771,_ZNSt3__112basic_stringIcNS_11char_traitsIcEENS_9allocatorIcEEE13__get_pointerEv
FN:1774,_ZNKSt3__112basic_stringIcNS_11char_traitsIcEENS_9allocatorIcEEE13__get_pointerEv
FN:1778,_ZNSt3__112basic_stringIcNS_11char_traitsIcEENS_9allocatorIcEEE6__zeroEv
FN:1927,_ZNSt3__112basic_stringIcNS_11char_traitsIcEENS_9allocatorIcEEEC1Ev
FN:1927,_ZNSt3__112basic_stringIcNS_11char_traitsIcEENS_9allocatorIcEEEC2Ev
FN:2659,_ZNSt3__112basic_stringIcNS_11char_traitsIcEENS_9allocatorIcEEE6appendERKS5_
FN:3105,_ZNSt3__112basic_stringIcNS_11char_traitsIcEENS_9allocatorIcEEE5eraseENS_11__wrap_iterIPKcEES9_
FNDA:5,_ZNSt3__112basic_stringIcNS_11char_traitsIcEENS_9allocatorIcEEE5beginEv
FNDA:10,_ZNSt3__112basic_stringIcNS_11char_traitsIcEENS_9allocatorIcEEE3endEv
FNDA:26,_ZNKSt3__112basic_stringIcNS_11char_traitsIcEENS_9allocatorIcEEE4sizeEv
FNDA:16,_ZNSt3__112basic_stringIcNS_11char_traitsIcEENS_9allocatorIcEEEpLERKS5_
FNDA:36,_ZNSt3__112basic_stringIcNS_11char_traitsIcEENS_9allocatorIcEEEpLEPKc
FNDA:16,_ZNKSt3__112basic_stringIcNS_11char_traitsIcEENS_9allocatorIcEEE4dataEv
FNDA:57,_ZNKSt3__112basic_stringIcNS_11char_traitsIcEENS_9allocatorIcEEE9__is_longEv
FNDA:24,_ZNKSt3__112basic_stringIcNS_11char_traitsIcEENS_9allocatorIcEEE16__get_short_sizeEv
FNDA:2,_ZNKSt3__112basic_stringIcNS_11char_traitsIcEENS_9allocatorIcEEE15__get_long_sizeEv
FNDA:3,_ZNSt3__112basic_stringIcNS_11char_traitsIcEENS_9allocatorIcEEE18__get_long_pointerEv
FNDA:0,_ZNKSt3__112basic_stringIcNS_11char_traitsIcEENS_9allocatorIcEEE18__get_long_pointerEv
FNDA:12,_ZNSt3__112basic_stringIcNS_11char_traitsIcEENS_9allocatorIcEEE19__get_short_pointerEv
FNDA:16,_ZNKSt3__112basic_stringIcNS_11char_traitsIcEENS_9allocatorIcEEE19__get_short_pointerEv
FNDA:15,_ZNSt3__112basic_stringIcNS_11char_traitsIcEENS_9allocatorIcEEE13__get_pointerEv
FNDA:16,_ZNKSt3__112basic_stringIcNS_11char_traitsIcEENS_9allocatorIcEEE13__get_pointerEv
FNDA:7,_ZNSt3__112basic_stringIcNS_11char_traitsIcEENS_9allocatorIcEEE6__zeroEv
FNDA:7,_ZNSt3__112basic_stringIcNS_11char_traitsIcEENS_9allocatorIcEEEC1Ev
FNDA:7,_ZNSt3__112basic_stringIcNS_11char_traitsIcEENS_9allocatorIcEEEC2Ev
FNDA:16,_ZNSt3__112basic_stringIcNS_11char_traitsIcEENS_9allocatorIcEEE6appendERKS5_
FNDA:5,_ZNSt3__112basic_stringIcNS_11char_traitsIcEENS_9allocatorIcEEE5eraseENS_11__wrap_iterIPKcEES9_
FNF:20
FNH:19
DA:1323,7
DA:1406,5
DA:1412,10
DA:1444,78
DA:1466,16
DA:1467,36
DA:1617,16
DA:1681,57
DA:1733,24
DA:1743,2
DA:1760,3
DA:1763,0
DA:1766,12
DA:1769,16
DA:1772,45
DA:1775,48
DA:1780,7
DA:1781,56
DA:1782,21
DA:1783,7
DA:1929,14
DA:1933,7
DA:1934,14
DA:2661,16
DA:3113,5
DA:3114,5
DA:3115,5
DA:3116,5
LF:28
LH:27
end_of_record
SF:/Users/hide/study/FizzBuzz/src/FizzBuzz.cpp
FN:3,_ZN8FizzBuzzC1Ev
FN:3,_ZN8FizzBuzzC2Ev
FN:7,_ZN8FizzBuzzD2Ev
FN:7,_ZN8FizzBuzzD1Ev
FN:11,_ZN8FizzBuzz7ExecuteEi
FNDA:7,_ZN8FizzBuzzC2Ev
FNDA:7,_ZN8FizzBuzzC1Ev
FNDA:7,_ZN8FizzBuzzD2Ev
FNDA:7,_ZN8FizzBuzzD1Ev
FNDA:7,_ZN8FizzBuzz7ExecuteEi
FNF:5
FNH:5
DA:4,7
DA:5,14
DA:8,7
DA:9,14
DA:13,7
DA:15,7
DA:16,2
DA:19,62
DA:20,26
DA:21,1
DA:23,26
DA:24,6
DA:26,25
DA:27,3
DA:29,3
DA:30,48
DA:33,26
DA:34,26
DA:36,10
DA:38,5
DA:39,14
LF:21
LH:21
end_of_record
